; Function Attrs: nofree nounwind sspstrong uwtable
define dso_local i32 @main() local_unnamed_addr #0 {
  %1 = alloca i32, align 4
  %2 = alloca [100 x [6 x double]], align 16
  %3 = bitcast i32* %1 to i8*
  call void @llvm.lifetime.start.p0i8(i64 4, i8* nonnull %3) #4
  %4 = call i32 (i8*, ...) @__isoc99_scanf(i8* getelementptr inbounds ([3 x i8], [3 x i8]* @.str, i64 0, i64 0), i32* nonnull %1)
  %5 = bitcast [100 x [6 x double]]* %2 to i8*
  call void @llvm.lifetime.start.p0i8(i64 4800, i8* nonnull %5) #4
  %6 = load i32, i32* %1, align 4, !tbaa !5
  %7 = icmp slt i32 %6, 1
  br i1 %7, label %106, label %10

8:                                                ; preds = %10
  %9 = icmp slt i32 %17, 1
  br i1 %9, label %106, label %20

10:                                               ; preds = %0, %10
  %11 = phi i64 [ %16, %10 ], [ 1, %0 ]
  %12 = getelementptr inbounds [100 x [6 x double]], [100 x [6 x double]]* %2, i64 0, i64 %11, i64 1
  %13 = getelementptr inbounds [100 x [6 x double]], [100 x [6 x double]]* %2, i64 0, i64 %11, i64 2
  %14 = getelementptr inbounds [100 x [6 x double]], [100 x [6 x double]]* %2, i64 0, i64 %11, i64 3
  %15 = call i32 (i8*, ...) @__isoc99_scanf(i8* getelementptr inbounds ([12 x i8], [12 x i8]* @.str.1, i64 0, i64 0), double* nonnull %12, double* nonnull %13, double* nonnull %14)
  %16 = add nuw nsw i64 %11, 1
  %17 = load i32, i32* %1, align 4, !tbaa !5
  %18 = sext i32 %17 to i64
  %19 = icmp slt i64 %11, %18
  br i1 %19, label %10, label %8, !llvm.loop !9

20:                                               ; preds = %8, %101
  %21 = phi i64 [ %102, %101 ], [ 1, %8 ]
  %22 = getelementptr inbounds [100 x [6 x double]], [100 x [6 x double]]* %2, i64 0, i64 %21, i64 2
  %23 = getelementptr inbounds [100 x [6 x double]], [100 x [6 x double]]* %2, i64 0, i64 %21, i64 1
  %24 = load double, double* %23, align 8, !tbaa !11
  %25 = fmul double %24, 4.000000e+00
  %26 = bitcast double* %22 to <2 x double>*
  %27 = load <2 x double>, <2 x double>* %26, align 16, !tbaa !11
  %28 = extractelement <2 x double> %27, i32 0
  %29 = insertelement <2 x double> %27, double %25, i32 1
  %30 = fmul <2 x double> %27, %29
  %31 = shufflevector <2 x double> %30, <2 x double> poison, <2 x i32> <i32 1, i32 undef>
  %32 = fsub <2 x double> %30, %31
  %33 = extractelement <2 x double> %32, i32 0
  %34 = getelementptr inbounds [100 x [6 x double]], [100 x [6 x double]]* %2, i64 0, i64 %21, i64 4
  store double %33, double* %34, align 16, !tbaa !11
  %35 = fcmp oeq double %33, 0.000000e+00
  br i1 %35, label %36, label %42

36:                                               ; preds = %20
  %37 = fneg double %28
  %38 = fmul double %24, 2.000000e+00
  %39 = fdiv double %37, %38
  %40 = getelementptr inbounds [100 x [6 x double]], [100 x [6 x double]]* %2, i64 0, i64 %21, i64 5
  store double %39, double* %40, align 8, !tbaa !11
  %41 = call i32 (i8*, ...) @printf(i8* nonnull dereferenceable(1) getelementptr inbounds ([12 x i8], [12 x i8]* @.str.2, i64 0, i64 0), double %39)
  br label %101

42:                                               ; preds = %20
  %43 = fcmp ogt double %33, 0.000000e+00
  br i1 %43, label %44, label %84

44:                                               ; preds = %42
  %45 = fcmp une double %28, 0.000000e+00
  br i1 %45, label %46, label %65

46:                                               ; preds = %44
  %47 = call double @sqrt(double %33) #4
  %48 = fsub double %47, %28
  %49 = load double, double* %23, align 8, !tbaa !11
  %50 = fmul double %49, 2.000000e+00
  %51 = fdiv double %48, %50
  %52 = getelementptr inbounds [100 x [6 x double]], [100 x [6 x double]]* %2, i64 0, i64 %21, i64 5
  store double %51, double* %52, align 8, !tbaa !11
  %53 = load double, double* %22, align 16, !tbaa !11
  %54 = fneg double %53
  %55 = load double, double* %34, align 16, !tbaa !11
  %56 = call double @sqrt(double %55) #4
  %57 = fsub double %54, %56
  %58 = load double, double* %23, align 8, !tbaa !11
  %59 = fmul double %58, 2.000000e+00
  %60 = fdiv double %57, %59
  %61 = getelementptr inbounds [100 x [6 x double]], [100 x [6 x double]]* %2, i64 0, i64 %21, i64 6
  store double %60, double* %61, align 16, !tbaa !11
  %62 = load double, double* %52, align 8, !tbaa !11
  %63 = call i32 (i8*, ...) @printf(i8* nonnull dereferenceable(1) getelementptr inbounds ([17 x i8], [17 x i8]* @.str.3, i64 0, i64 0), double %62, double %60)
  %64 = load double, double* %22, align 16, !tbaa !11
  br label %65

65:                                               ; preds = %46, %44
  %66 = phi double [ %64, %46 ], [ %28, %44 ]
  %67 = fcmp oeq double %66, 0.000000e+00
  br i1 %67, label %68, label %101

68:                                               ; preds = %65
  %69 = load double, double* %34, align 16, !tbaa !11
  %70 = call double @sqrt(double %69) #4
  %71 = load double, double* %23, align 8, !tbaa !11
  %72 = fmul double %71, 2.000000e+00
  %73 = fdiv double %70, %72
  %74 = getelementptr inbounds [100 x [6 x double]], [100 x [6 x double]]* %2, i64 0, i64 %21, i64 5
  store double %73, double* %74, align 8, !tbaa !11
  %75 = load double, double* %34, align 16, !tbaa !11
  %76 = call double @sqrt(double %75) #4
  %77 = fneg double %76
  %78 = load double, double* %23, align 8, !tbaa !11
  %79 = fmul double %78, 2.000000e+00
  %80 = fdiv double %77, %79
  %81 = getelementptr inbounds [100 x [6 x double]], [100 x [6 x double]]* %2, i64 0, i64 %21, i64 6
  store double %80, double* %81, align 16, !tbaa !11
  %82 = load double, double* %74, align 8, !tbaa !11
  %83 = call i32 (i8*, ...) @printf(i8* nonnull dereferenceable(1) getelementptr inbounds ([17 x i8], [17 x i8]* @.str.3, i64 0, i64 0), double %82, double %80)
  br label %101

84:                                               ; preds = %42
  %85 = fneg double %28
  %86 = fmul double %24, 2.000000e+00
  %87 = fdiv double %85, %86
  %88 = getelementptr inbounds [100 x [6 x double]], [100 x [6 x double]]* %2, i64 0, i64 %21, i64 5
  store double %87, double* %88, align 8, !tbaa !11
  %89 = fneg double %33
  %90 = call double @sqrt(double %89) #4
  %91 = load double, double* %23, align 8, !tbaa !11
  %92 = fmul double %91, 2.000000e+00
  %93 = fdiv double %90, %92
  %94 = getelementptr inbounds [100 x [6 x double]], [100 x [6 x double]]* %2, i64 0, i64 %21, i64 6
  store double %93, double* %94, align 16, !tbaa !11
  %95 = load double, double* %88, align 8, !tbaa !11
  %96 = fcmp une double %95, 0.000000e+00
  br i1 %96, label %97, label %99

97:                                               ; preds = %84
  %98 = call i32 (i8*, ...) @printf(i8* nonnull dereferenceable(1) getelementptr inbounds ([29 x i8], [29 x i8]* @.str.4, i64 0, i64 0), double %95, double %93, double %95, double %93)
  br label %101

99:                                               ; preds = %84
  %100 = call i32 (i8*, ...) @printf(i8* nonnull dereferenceable(1) getelementptr inbounds ([35 x i8], [35 x i8]* @.str.5, i64 0, i64 0), double %93, double %93)
  br label %101

101:                                              ; preds = %68, %65, %99, %97, %36
  %102 = add nuw nsw i64 %21, 1
  %103 = load i32, i32* %1, align 4, !tbaa !5
  %104 = sext i32 %103 to i64
  %105 = icmp slt i64 %21, %104
  br i1 %105, label %20, label %106, !llvm.loop !13

106:                                              ; preds = %101, %0, %8
  %107 = load %struct._IO_FILE*, %struct._IO_FILE** @stdin, align 8, !tbaa !14
  %108 = call i32 @getc(%struct._IO_FILE* %107) #4
  %109 = load %struct._IO_FILE*, %struct._IO_FILE** @stdin, align 8, !tbaa !14
  %110 = call i32 @getc(%struct._IO_FILE* %109) #4
  %111 = load %struct._IO_FILE*, %struct._IO_FILE** @stdin, align 8, !tbaa !14
  %112 = call i32 @getc(%struct._IO_FILE* %111) #4
  %113 = load %struct._IO_FILE*, %struct._IO_FILE** @stdin, align 8, !tbaa !14
  %114 = call i32 @getc(%struct._IO_FILE* %113) #4
  call void @llvm.lifetime.end.p0i8(i64 4800, i8* nonnull %5) #4
  call void @llvm.lifetime.end.p0i8(i64 4, i8* nonnull %3) #4
  ret i32 0
}